; Function Attrs: mustprogress nofree norecurse nosync nounwind willreturn memory(read, argmem: readwrite, inaccessiblemem: none) uwtable
define void @_ZN5arrow2io11StdinStreamC2Ev(ptr nocapture noundef nonnull align 8 dereferenceable(16) %this, ptr nocapture noundef readonly %vtt) unnamed_addr #3 align 2 personality ptr @__gxx_personality_v0 {
entry:
  %0 = getelementptr inbounds i8, ptr %vtt, i64 8
  %1 = load ptr, ptr %0, align 8
  store ptr %1, ptr %this, align 8
  %2 = getelementptr inbounds i8, ptr %vtt, i64 16
  %3 = load ptr, ptr %2, align 8
  %vbase.offset.ptr.i = getelementptr i8, ptr %1, i64 -56
  %vbase.offset.i = load i64, ptr %vbase.offset.ptr.i, align 8
  %add.ptr.i = getelementptr inbounds i8, ptr %this, i64 %vbase.offset.i
  store ptr %3, ptr %add.ptr.i, align 8
  %4 = getelementptr inbounds i8, ptr %vtt, i64 24
  %5 = load ptr, ptr %4, align 8
  %vtable3.i = load ptr, ptr %this, align 8
  %vbase.offset.ptr4.i = getelementptr i8, ptr %vtable3.i, i64 -64
  %vbase.offset5.i = load i64, ptr %vbase.offset.ptr4.i, align 8
  %add.ptr6.i = getelementptr inbounds i8, ptr %this, i64 %vbase.offset5.i
  store ptr %5, ptr %add.ptr6.i, align 8
  %6 = load ptr, ptr %vtt, align 8
  store ptr %6, ptr %this, align 8
  %7 = getelementptr inbounds i8, ptr %vtt, i64 32
  %8 = load ptr, ptr %7, align 8
  %vbase.offset.ptr = getelementptr i8, ptr %6, i64 -56
  %vbase.offset = load i64, ptr %vbase.offset.ptr, align 8
  %add.ptr = getelementptr inbounds i8, ptr %this, i64 %vbase.offset
  store ptr %8, ptr %add.ptr, align 8
  %9 = getelementptr inbounds i8, ptr %vtt, i64 40
  %10 = load ptr, ptr %9, align 8
  %vtable3 = load ptr, ptr %this, align 8
  %vbase.offset.ptr4 = getelementptr i8, ptr %vtable3, i64 -64
  %vbase.offset5 = load i64, ptr %vbase.offset.ptr4, align 8
  %add.ptr6 = getelementptr inbounds i8, ptr %this, i64 %vbase.offset5
  store ptr %10, ptr %add.ptr6, align 8
  %pos_ = getelementptr inbounds i8, ptr %this, i64 8
  store i64 0, ptr %pos_, align 8
  %vtable7 = load ptr, ptr %this, align 8
  %vbase.offset.ptr8 = getelementptr i8, ptr %vtable7, i64 -56
  %vbase.offset9 = load i64, ptr %vbase.offset.ptr8, align 8
  %add.ptr10 = getelementptr inbounds i8, ptr %this, i64 %vbase.offset9
  %mode_.i = getelementptr inbounds i8, ptr %add.ptr10, i64 24
  store i32 0, ptr %mode_.i, align 8
  ret void
}